target datalayout = "e-m:e-p270:32:32-p271:32:32-p272:64:64-i64:64-i128:128-f80:128-n8:16:32:64-S128"
target triple = "x86_64-pc-linux-gnu"

@_ZL10_dump_path = internal global [4097 x i8] zeroinitializer, align 16

; Function Attrs: mustprogress nounwind uwtable
define hidden void @_ZN16JfrEmergencyDump13set_dump_pathEPKc(ptr noundef %0) #1 align 2 {
  %2 = alloca ptr, align 8
  store ptr %0, ptr %2, align 8
  %3 = load ptr, ptr %2, align 8
  %4 = icmp eq ptr %3, null
  br i1 %4, label %10, label %5

5:                                                ; preds = %1
  %6 = load ptr, ptr %2, align 8
  %7 = load i8, ptr %6, align 1
  %8 = sext i8 %7 to i32
  %9 = icmp eq i32 %8, 0
  br i1 %9, label %10, label %12

10:                                               ; preds = %5, %1
  %11 = call noundef ptr @_ZN2os21get_current_directoryEPcm(ptr noundef @_ZL10_dump_path, i64 noundef 4097)
  br label %20

12:                                               ; preds = %5
  %13 = load ptr, ptr %2, align 8
  %14 = call i64 @strlen(ptr noundef %13) #10
  %15 = icmp ult i64 %14, 4097
  br i1 %15, label %16, label %19

16:                                               ; preds = %12
  %17 = load ptr, ptr %2, align 8
  %18 = call ptr @strncpy(ptr noundef @_ZL10_dump_path, ptr noundef %17, i64 noundef 4097) #8
  store i8 0, ptr getelementptr inbounds ([4097 x i8], ptr @_ZL10_dump_path, i64 0, i64 4096), align 16
  br label %19

19:                                               ; preds = %16, %12
  br label %20

20:                                               ; preds = %19, %10
  ret void
}