; Function Attrs: mustprogress nounwind uwtable
define hidden void @_ZN16JfrEmergencyDump13set_dump_pathEPKc(ptr noundef readonly %0) local_unnamed_addr #0 align 2 {
  %2 = icmp eq ptr %0, null
  br i1 %2, label %6, label %3

3:                                                ; preds = %1
  %4 = load i8, ptr %0, align 1
  %5 = icmp eq i8 %4, 0
  br i1 %5, label %6, label %8

6:                                                ; preds = %3, %1
  %7 = tail call noundef ptr @_ZN2os21get_current_directoryEPcm(ptr noundef nonnull @_ZL10_dump_path, i64 noundef 4097) #16
  br label %13

8:                                                ; preds = %3
  %9 = tail call i64 @strlen(ptr noundef nonnull dereferenceable(1) %0) #17
  %10 = icmp ult i64 %9, 4097
  br i1 %10, label %11, label %13

11:                                               ; preds = %8
  %12 = tail call ptr @strncpy(ptr noundef nonnull dereferenceable(1) @_ZL10_dump_path, ptr noundef nonnull dereferenceable(1) %0, i64 noundef 4097) #16
  store i8 0, ptr getelementptr inbounds (i8, ptr @_ZL10_dump_path, i64 4096), align 16
  br label %13

13:                                               ; preds = %8, %11, %6
  ret void
}